target datalayout = "e-m:e-p270:32:32-p271:32:32-p272:64:64-i64:64-i128:128-f80:128-n8:16:32:64-S128"
target triple = "x86_64-pc-linux-gnu"

@.str = private unnamed_addr constant [28 x i8] c"../openssl/test/rand_test.c\00", align 1
@.str.28 = private unnamed_addr constant [32 x i8] c"fips_health_test_one(buf, i, i)\00", align 1

; Function Attrs: nounwind uwtable
define internal i32 @fips_health_tests() #0 {
  %1 = alloca i32, align 4
  %2 = alloca [1000 x i8], align 16
  %3 = alloca i64, align 8
  %4 = alloca i32, align 4
  call void @llvm.lifetime.start.p0(i64 1000, ptr %2) #8
  call void @llvm.lifetime.start.p0(i64 8, ptr %3) #8
  store i64 0, ptr %3, align 8, !tbaa !15
  br label %5

5:                                                ; preds = %14, %0
  %6 = load i64, ptr %3, align 8, !tbaa !15
  %7 = icmp ult i64 %6, 1000
  br i1 %7, label %8, label %17

8:                                                ; preds = %5
  %9 = load i64, ptr %3, align 8, !tbaa !15
  %10 = and i64 255, %9
  %11 = trunc i64 %10 to i8
  %12 = load i64, ptr %3, align 8, !tbaa !15
  %13 = getelementptr inbounds nuw [1000 x i8], ptr %2, i64 0, i64 %12
  store i8 %11, ptr %13, align 1, !tbaa !27
  br label %14

14:                                               ; preds = %8
  %15 = load i64, ptr %3, align 8, !tbaa !15
  %16 = add i64 %15, 1
  store i64 %16, ptr %3, align 8, !tbaa !15
  br label %5, !llvm.loop !28

17:                                               ; preds = %5
  %18 = getelementptr inbounds [1000 x i8], ptr %2, i64 0, i64 0
  %19 = load i64, ptr %3, align 8, !tbaa !15
  %20 = load i64, ptr %3, align 8, !tbaa !15
  %21 = call i32 @fips_health_test_one(ptr noundef %18, i64 noundef %19, i64 noundef %20)
  %22 = icmp ne i32 %21, 0
  %23 = zext i1 %22 to i32
  %24 = call i32 @test_true(ptr noundef @.str, i32 noundef 148, ptr noundef @.str.28, i32 noundef %23)
  %25 = icmp ne i32 %24, 0
  br i1 %25, label %27, label %26

26:                                               ; preds = %17
  store i32 0, ptr %1, align 4
  store i32 1, ptr %4, align 4
  br label %90

27:                                               ; preds = %17
  store i64 0, ptr %3, align 8, !tbaa !15
  br label %28

28:                                               ; preds = %43, %27
  %29 = load i64, ptr %3, align 8, !tbaa !15
  %30 = icmp ult i64 %29, 20
  br i1 %30, label %31, label %46

31:                                               ; preds = %28
  %32 = load i64, ptr %3, align 8, !tbaa !15
  %33 = icmp ugt i64 %32, 10
  br i1 %33, label %34, label %35

34:                                               ; preds = %31
  br label %37

35:                                               ; preds = %31
  %36 = load i64, ptr %3, align 8, !tbaa !15
  br label %37

37:                                               ; preds = %35, %34
  %38 = phi i64 [ 200, %34 ], [ %36, %35 ]
  %39 = and i64 255, %38
  %40 = trunc i64 %39 to i8
  %41 = load i64, ptr %3, align 8, !tbaa !15
  %42 = getelementptr inbounds nuw [1000 x i8], ptr %2, i64 0, i64 %41
  store i8 %40, ptr %42, align 1, !tbaa !27
  br label %43

43:                                               ; preds = %37
  %44 = load i64, ptr %3, align 8, !tbaa !15
  %45 = add i64 %44, 1
  store i64 %45, ptr %3, align 8, !tbaa !15
  br label %28, !llvm.loop !29

46:                                               ; preds = %28
  %47 = getelementptr inbounds [1000 x i8], ptr %2, i64 0, i64 0
  %48 = load i64, ptr %3, align 8, !tbaa !15
  %49 = load i64, ptr %3, align 8, !tbaa !15
  %50 = call i32 @fips_health_test_one(ptr noundef %47, i64 noundef %48, i64 noundef %49)
  %51 = icmp ne i32 %50, 0
  %52 = zext i1 %51 to i32
  %53 = call i32 @test_false(ptr noundef @.str, i32 noundef 154, ptr noundef @.str.28, i32 noundef %52)
  %54 = icmp ne i32 %53, 0
  br i1 %54, label %56, label %55

55:                                               ; preds = %46
  store i32 0, ptr %1, align 4
  store i32 1, ptr %4, align 4
  br label %90

56:                                               ; preds = %46
  store i64 0, ptr %3, align 8, !tbaa !15
  br label %57

57:                                               ; preds = %76, %56
  %58 = load i64, ptr %3, align 8, !tbaa !15
  %59 = icmp ult i64 %58, 1000
  br i1 %59, label %60, label %79

60:                                               ; preds = %57
  %61 = load i64, ptr %3, align 8, !tbaa !15
  %62 = icmp uge i64 %61, 512
  br i1 %62, label %63, label %68

63:                                               ; preds = %60
  %64 = load i64, ptr %3, align 8, !tbaa !15
  %65 = urem i64 %64, 8
  %66 = icmp eq i64 %65, 0
  br i1 %66, label %67, label %68

67:                                               ; preds = %63
  br label %70

68:                                               ; preds = %63, %60
  %69 = load i64, ptr %3, align 8, !tbaa !15
  br label %70

70:                                               ; preds = %68, %67
  %71 = phi i64 [ 128, %67 ], [ %69, %68 ]
  %72 = and i64 255, %71
  %73 = trunc i64 %72 to i8
  %74 = load i64, ptr %3, align 8, !tbaa !15
  %75 = getelementptr inbounds nuw [1000 x i8], ptr %2, i64 0, i64 %74
  store i8 %73, ptr %75, align 1, !tbaa !27
  br label %76

76:                                               ; preds = %70
  %77 = load i64, ptr %3, align 8, !tbaa !15
  %78 = add i64 %77, 1
  store i64 %78, ptr %3, align 8, !tbaa !15
  br label %57, !llvm.loop !30

79:                                               ; preds = %57
  %80 = getelementptr inbounds [1000 x i8], ptr %2, i64 0, i64 0
  %81 = load i64, ptr %3, align 8, !tbaa !15
  %82 = load i64, ptr %3, align 8, !tbaa !15
  %83 = call i32 @fips_health_test_one(ptr noundef %80, i64 noundef %81, i64 noundef %82)
  %84 = icmp ne i32 %83, 0
  %85 = zext i1 %84 to i32
  %86 = call i32 @test_false(ptr noundef @.str, i32 noundef 160, ptr noundef @.str.28, i32 noundef %85)
  %87 = icmp ne i32 %86, 0
  br i1 %87, label %89, label %88

88:                                               ; preds = %79
  store i32 0, ptr %1, align 4
  store i32 1, ptr %4, align 4
  br label %90

89:                                               ; preds = %79
  store i32 1, ptr %1, align 4
  store i32 1, ptr %4, align 4
  br label %90

90:                                               ; preds = %89, %88, %55, %26
  call void @llvm.lifetime.end.p0(i64 8, ptr %3) #8
  call void @llvm.lifetime.end.p0(i64 1000, ptr %2) #8
  %91 = load i32, ptr %1, align 4
  ret i32 %91
}