; Function Attrs: nounwind uwtable
define internal range(i32 0, 2) i32 @fips_health_tests() #0 {
  %1 = alloca [1000 x i8], align 16
  call void @llvm.lifetime.start.p0(i64 1000, ptr nonnull %1) #11
  br label %2

2:                                                ; preds = %0, %2
  %.027 = phi i64 [ 0, %0 ], [ %5, %2 ]
  %3 = trunc i64 %.027 to i8
  %4 = getelementptr inbounds nuw [1000 x i8], ptr %1, i64 0, i64 %.027
  store i8 %3, ptr %4, align 1, !tbaa !21
  %5 = add nuw nsw i64 %.027, 1
  %exitcond.not = icmp eq i64 %5, 1000
  br i1 %exitcond.not, label %6, label %2, !llvm.loop !22

6:                                                ; preds = %2
  %7 = call fastcc i32 @fips_health_test_one(ptr noundef %1, i64 noundef 1000, i64 noundef 1000)
  %8 = icmp ne i32 %7, 0
  %9 = zext i1 %8 to i32
  %10 = call i32 @test_true(ptr noundef nonnull @.str, i32 noundef 148, ptr noundef nonnull @.str.28, i32 noundef %9) #11
  %.not = icmp eq i32 %10, 0
  br i1 %.not, label %33, label %.preheader26

.preheader26:                                     ; preds = %6, %.preheader26
  %.128 = phi i64 [ %15, %.preheader26 ], [ 0, %6 ]
  %11 = icmp samesign ugt i64 %.128, 10
  %12 = trunc nuw i64 %.128 to i8
  %13 = select i1 %11, i8 -56, i8 %12
  %14 = getelementptr inbounds nuw [1000 x i8], ptr %1, i64 0, i64 %.128
  store i8 %13, ptr %14, align 1, !tbaa !21
  %15 = add nuw nsw i64 %.128, 1
  %exitcond32.not = icmp eq i64 %15, 20
  br i1 %exitcond32.not, label %16, label %.preheader26, !llvm.loop !23

16:                                               ; preds = %.preheader26
  %17 = call fastcc i32 @fips_health_test_one(ptr noundef %1, i64 noundef 20, i64 noundef 20)
  %18 = icmp ne i32 %17, 0
  %19 = zext i1 %18 to i32
  %20 = call i32 @test_false(ptr noundef nonnull @.str, i32 noundef 154, ptr noundef nonnull @.str.28, i32 noundef %19) #11
  %.not23 = icmp eq i32 %20, 0
  br i1 %.not23, label %33, label %.preheader

.preheader:                                       ; preds = %16, %.preheader
  %.229 = phi i64 [ %27, %.preheader ], [ 0, %16 ]
  %21 = icmp samesign ugt i64 %.229, 511
  %22 = and i64 %.229, 7
  %23 = icmp eq i64 %22, 0
  %or.cond = and i1 %21, %23
  %24 = trunc i64 %.229 to i8
  %25 = select i1 %or.cond, i8 -128, i8 %24
  %26 = getelementptr inbounds nuw [1000 x i8], ptr %1, i64 0, i64 %.229
  store i8 %25, ptr %26, align 1, !tbaa !21
  %27 = add nuw nsw i64 %.229, 1
  %exitcond33.not = icmp eq i64 %27, 1000
  br i1 %exitcond33.not, label %28, label %.preheader, !llvm.loop !24

28:                                               ; preds = %.preheader
  %29 = call fastcc i32 @fips_health_test_one(ptr noundef %1, i64 noundef 1000, i64 noundef 1000)
  %30 = icmp ne i32 %29, 0
  %31 = zext i1 %30 to i32
  %32 = call i32 @test_false(ptr noundef nonnull @.str, i32 noundef 160, ptr noundef nonnull @.str.28, i32 noundef %31) #11
  %.not24 = icmp ne i32 %32, 0
  %. = zext i1 %.not24 to i32
  br label %33

33:                                               ; preds = %28, %16, %6
  %.022 = phi i32 [ 0, %6 ], [ 0, %16 ], [ %., %28 ]
  call void @llvm.lifetime.end.p0(i64 1000, ptr nonnull %1) #11
  ret i32 %.022
}